target datalayout = "e-m:e-p270:32:32-p271:32:32-p272:64:64-i64:64-i128:128-f80:128-n8:16:32:64-S128"
target triple = "x86_64-pc-linux-gnu"

%struct.config_generic = type { ptr, i32, i32, ptr, ptr, i32, i32, i32, i32, i32, i32, i32, i32, i32, ptr, ptr, %struct.dlist_node, %struct.slist_node, %struct.slist_node, ptr, ptr, i32 }
%struct.dlist_node = type { ptr, ptr }
%struct.slist_node = type { ptr }
%struct.config_enum = type { %struct.config_generic, ptr, i32, ptr, ptr, ptr, ptr, i32, ptr }

; Function Attrs: nounwind uwtable
define dso_local void @DefineCustomEnumVariable(ptr noundef nonnull %0, ptr noundef %1, ptr noundef %2, ptr noundef nonnull %3, i32 noundef %4, ptr noundef %5, i32 noundef %6, i32 noundef %7, ptr noundef %8, ptr noundef %9, ptr noundef %10) #0 {
  %12 = alloca ptr, align 8
  %13 = alloca ptr, align 8
  %14 = alloca ptr, align 8
  %15 = alloca ptr, align 8
  %16 = alloca i32, align 4
  %17 = alloca ptr, align 8
  %18 = alloca i32, align 4
  %19 = alloca i32, align 4
  %20 = alloca ptr, align 8
  %21 = alloca ptr, align 8
  %22 = alloca ptr, align 8
  %23 = alloca ptr, align 8
  store ptr %0, ptr %12, align 8
  store ptr %1, ptr %13, align 8
  store ptr %2, ptr %14, align 8
  store ptr %3, ptr %15, align 8
  store i32 %4, ptr %16, align 4
  store ptr %5, ptr %17, align 8
  store i32 %6, ptr %18, align 4
  store i32 %7, ptr %19, align 4
  store ptr %8, ptr %20, align 8
  store ptr %9, ptr %21, align 8
  store ptr %10, ptr %22, align 8
  call void @llvm.lifetime.start.p0(i64 8, ptr %23) #16
  %24 = load ptr, ptr %12, align 8
  %25 = load ptr, ptr %13, align 8
  %26 = load ptr, ptr %14, align 8
  %27 = load i32, ptr %18, align 4
  %28 = load i32, ptr %19, align 4
  %29 = call ptr @init_custom_variable(ptr noundef %24, ptr noundef %25, ptr noundef %26, i32 noundef %27, i32 noundef %28, i32 noundef 4, i64 noundef 208)
  store ptr %29, ptr %23, align 8
  %30 = load ptr, ptr %15, align 8
  %31 = load ptr, ptr %23, align 8
  %32 = getelementptr inbounds nuw %struct.config_enum, ptr %31, i32 0, i32 1
  store ptr %30, ptr %32, align 8
  %33 = load i32, ptr %16, align 4
  %34 = load ptr, ptr %23, align 8
  %35 = getelementptr inbounds nuw %struct.config_enum, ptr %34, i32 0, i32 2
  store i32 %33, ptr %35, align 8
  %36 = load i32, ptr %16, align 4
  %37 = load ptr, ptr %23, align 8
  %38 = getelementptr inbounds nuw %struct.config_enum, ptr %37, i32 0, i32 7
  store i32 %36, ptr %38, align 8
  %39 = load ptr, ptr %17, align 8
  %40 = load ptr, ptr %23, align 8
  %41 = getelementptr inbounds nuw %struct.config_enum, ptr %40, i32 0, i32 3
  store ptr %39, ptr %41, align 8
  %42 = load ptr, ptr %20, align 8
  %43 = load ptr, ptr %23, align 8
  %44 = getelementptr inbounds nuw %struct.config_enum, ptr %43, i32 0, i32 4
  store ptr %42, ptr %44, align 8
  %45 = load ptr, ptr %21, align 8
  %46 = load ptr, ptr %23, align 8
  %47 = getelementptr inbounds nuw %struct.config_enum, ptr %46, i32 0, i32 5
  store ptr %45, ptr %47, align 8
  %48 = load ptr, ptr %22, align 8
  %49 = load ptr, ptr %23, align 8
  %50 = getelementptr inbounds nuw %struct.config_enum, ptr %49, i32 0, i32 6
  store ptr %48, ptr %50, align 8
  %51 = load ptr, ptr %23, align 8
  %52 = getelementptr inbounds nuw %struct.config_enum, ptr %51, i32 0, i32 0
  call void @define_custom_variable(ptr noundef %52)
  call void @llvm.lifetime.end.p0(i64 8, ptr %23) #16
  ret void
}