; Function Attrs: nounwind uwtable
define dso_local void @DefineCustomEnumVariable(ptr noundef nonnull readonly captures(none) %0, ptr noundef %1, ptr noundef %2, ptr noundef nonnull %3, i32 noundef %4, ptr noundef %5, i32 noundef %6, i32 noundef %7, ptr noundef %8, ptr noundef %9, ptr noundef %10) local_unnamed_addr #0 {
  %12 = tail call fastcc ptr @init_custom_variable(ptr noundef %0, ptr noundef %1, ptr noundef %2, i32 noundef %6, i32 noundef %7, i32 noundef 4, i64 noundef 208)
  %13 = getelementptr inbounds nuw i8, ptr %12, i64 144
  store ptr %3, ptr %13, align 8
  %14 = getelementptr inbounds nuw i8, ptr %12, i64 152
  store i32 %4, ptr %14, align 8
  %15 = getelementptr inbounds nuw i8, ptr %12, i64 192
  store i32 %4, ptr %15, align 8
  %16 = getelementptr inbounds nuw i8, ptr %12, i64 160
  store ptr %5, ptr %16, align 8
  %17 = getelementptr inbounds nuw i8, ptr %12, i64 168
  store ptr %8, ptr %17, align 8
  %18 = getelementptr inbounds nuw i8, ptr %12, i64 176
  store ptr %9, ptr %18, align 8
  %19 = getelementptr inbounds nuw i8, ptr %12, i64 184
  store ptr %10, ptr %19, align 8
  tail call fastcc void @define_custom_variable(ptr noundef %12)
  ret void
}